; Function Attrs: mustprogress nounwind uwtable
define internal void @_ZN7rocksdb12_GLOBAL__N_113TestMemLoggerD0Ev(ptr noundef nonnull align 8 dereferenceable(145) initializes((0, 8)) %0) unnamed_addr #5 align 2 personality ptr @__gxx_personality_v0 {
  store ptr getelementptr inbounds nuw inrange(-16, 88) (i8, ptr @_ZTVN7rocksdb12_GLOBAL__N_113TestMemLoggerE, i64 16), ptr %0, align 8, !tbaa !46
  %2 = getelementptr inbounds nuw i8, ptr %0, i64 72
  tail call void @_ZNSt10_HashtableINSt7__cxx1112basic_stringIcSt11char_traitsIcESaIcEEESt4pairIKS5_S5_ESaIS8_ENSt8__detail10_Select1stESt8equal_toIS5_ESt4hashIS5_ENSA_18_Mod_range_hashingENSA_20_Default_ranged_hashENSA_20_Prime_rehash_policyENSA_17_Hashtable_traitsILb1ELb0ELb1EEEED2Ev(ptr noundef nonnull align 8 dereferenceable(56) %2) #32
  %3 = getelementptr inbounds nuw i8, ptr %0, i64 16
  %4 = load ptr, ptr %3, align 8, !tbaa !237
  %.not.i.i = icmp eq ptr %4, null
  br i1 %.not.i.i, label %_ZN7rocksdb12_GLOBAL__N_113TestMemLoggerD2Ev.exit, label %_ZNKSt14default_deleteIN7rocksdb14FSWritableFileEEclEPS1_.exit.i.i

_ZNKSt14default_deleteIN7rocksdb14FSWritableFileEEclEPS1_.exit.i.i: ; preds = %1
  %5 = load ptr, ptr %4, align 8, !tbaa !46
  %6 = getelementptr inbounds nuw i8, ptr %5, i64 8
  %7 = load ptr, ptr %6, align 8
  tail call void %7(ptr noundef nonnull align 8 dereferenceable(33) %4) #32
  br label %_ZN7rocksdb12_GLOBAL__N_113TestMemLoggerD2Ev.exit

_ZN7rocksdb12_GLOBAL__N_113TestMemLoggerD2Ev.exit: ; preds = %1, %_ZNKSt14default_deleteIN7rocksdb14FSWritableFileEEclEPS1_.exit.i.i
  store ptr null, ptr %3, align 8, !tbaa !237
  tail call void @_ZN7rocksdb6LoggerD2Ev(ptr noundef nonnull align 8 dereferenceable(145) %0) #32
  tail call void @_ZdlPvm(ptr noundef nonnull %0, i64 noundef 152) #33
  ret void
}